; Function Attrs: mustprogress nounwind uwtable
define dso_local void @_ZN4llvm4yaml6Output13outputNewLineEv(ptr noundef nonnull align 8 captures(none) dereferenceable(128) initializes((80, 84)) %0) local_unnamed_addr #6 align 2 {
  %2 = getelementptr inbounds nuw i8, ptr %0, i64 16
  %3 = load ptr, ptr %2, align 8
  %4 = getelementptr inbounds nuw i8, ptr %3, i64 24
  %5 = load ptr, ptr %4, align 8
  %6 = getelementptr inbounds nuw i8, ptr %3, i64 32
  %7 = load ptr, ptr %6, align 8
  %8 = icmp eq ptr %5, %7
  br i1 %8, label %9, label %11

9:                                                ; preds = %1
  %10 = tail call noundef nonnull align 8 dereferenceable(48) ptr @_ZN4llvm11raw_ostream5writeEPKcm(ptr noundef nonnull align 8 dereferenceable(48) %3, ptr noundef nonnull @.str.14, i64 noundef 1) #32
  br label %_ZN4llvm11raw_ostreamlsEPKc.exit

11:                                               ; preds = %1
  store i8 10, ptr %7, align 1
  %12 = load ptr, ptr %6, align 8
  %13 = getelementptr inbounds nuw i8, ptr %12, i64 1
  store ptr %13, ptr %6, align 8
  br label %_ZN4llvm11raw_ostreamlsEPKc.exit

_ZN4llvm11raw_ostreamlsEPKc.exit:                 ; preds = %9, %11
  %14 = getelementptr inbounds nuw i8, ptr %0, i64 80
  store i32 0, ptr %14, align 8
  ret void
}